target datalayout = "e-m:e-p270:32:32-p271:32:32-p272:64:64-i64:64-i128:128-f80:128-n8:16:32:64-S128"
target triple = "x86_64-pc-linux-gnu"

%struct.range_set = type { i32, i32, ptr }
%struct.range = type { i64, i64 }

@.str = private unnamed_addr constant [27 x i8] c"size_t overflow: %lu * %lu\00", align 1

; Function Attrs: inlinehint nounwind uwtable
define internal i64 @st_mult(i64 noundef %0, i64 noundef %1) #3 {
  %3 = alloca i64, align 8
  %4 = alloca i64, align 8
  store i64 %0, ptr %3, align 8, !tbaa !9
  store i64 %1, ptr %4, align 8, !tbaa !9
  %5 = load i64, ptr %3, align 8, !tbaa !9
  %6 = icmp ne i64 %5, 0
  br i1 %6, label %7, label %15

7:                                                ; preds = %2
  %8 = load i64, ptr %4, align 8, !tbaa !9
  %9 = load i64, ptr %3, align 8, !tbaa !9
  %10 = udiv i64 -1, %9
  %11 = icmp ugt i64 %8, %10
  br i1 %11, label %12, label %15

12:                                               ; preds = %7
  %13 = load i64, ptr %3, align 8, !tbaa !9
  %14 = load i64, ptr %4, align 8, !tbaa !9
  call void (ptr, ...) @die(ptr noundef @.str, i64 noundef %13, i64 noundef %14) #10
  unreachable

15:                                               ; preds = %7, %2
  %16 = load i64, ptr %3, align 8, !tbaa !9
  %17 = load i64, ptr %4, align 8, !tbaa !9
  %18 = mul i64 %16, %17
  ret i64 %18
}

; Function Attrs: nounwind uwtable
define internal void @range_set_grow(ptr noundef %0, i64 noundef %1) #0 {
  %3 = alloca ptr, align 8
  %4 = alloca i64, align 8
  store ptr %0, ptr %3, align 8, !tbaa !4
  store i64 %1, ptr %4, align 8, !tbaa !9
  br label %5

5:                                                ; preds = %2
  %6 = load ptr, ptr %3, align 8, !tbaa !4
  %7 = getelementptr inbounds nuw %struct.range_set, ptr %6, i32 0, i32 1
  %8 = load i32, ptr %7, align 4, !tbaa !11
  %9 = zext i32 %8 to i64
  %10 = load i64, ptr %4, align 8, !tbaa !9
  %11 = add i64 %9, %10
  %12 = load ptr, ptr %3, align 8, !tbaa !4
  %13 = getelementptr inbounds nuw %struct.range_set, ptr %12, i32 0, i32 0
  %14 = load i32, ptr %13, align 8, !tbaa !15
  %15 = zext i32 %14 to i64
  %16 = icmp ugt i64 %11, %15
  br i1 %16, label %17, label %63

17:                                               ; preds = %5
  %18 = load ptr, ptr %3, align 8, !tbaa !4
  %19 = getelementptr inbounds nuw %struct.range_set, ptr %18, i32 0, i32 0
  %20 = load i32, ptr %19, align 8, !tbaa !15
  %21 = add i32 %20, 16
  %22 = mul i32 %21, 3
  %23 = udiv i32 %22, 2
  %24 = zext i32 %23 to i64
  %25 = load ptr, ptr %3, align 8, !tbaa !4
  %26 = getelementptr inbounds nuw %struct.range_set, ptr %25, i32 0, i32 1
  %27 = load i32, ptr %26, align 4, !tbaa !11
  %28 = zext i32 %27 to i64
  %29 = load i64, ptr %4, align 8, !tbaa !9
  %30 = add i64 %28, %29
  %31 = icmp ult i64 %24, %30
  br i1 %31, label %32, label %42

32:                                               ; preds = %17
  %33 = load ptr, ptr %3, align 8, !tbaa !4
  %34 = getelementptr inbounds nuw %struct.range_set, ptr %33, i32 0, i32 1
  %35 = load i32, ptr %34, align 4, !tbaa !11
  %36 = zext i32 %35 to i64
  %37 = load i64, ptr %4, align 8, !tbaa !9
  %38 = add i64 %36, %37
  %39 = trunc i64 %38 to i32
  %40 = load ptr, ptr %3, align 8, !tbaa !4
  %41 = getelementptr inbounds nuw %struct.range_set, ptr %40, i32 0, i32 0
  store i32 %39, ptr %41, align 8, !tbaa !15
  br label %51

42:                                               ; preds = %17
  %43 = load ptr, ptr %3, align 8, !tbaa !4
  %44 = getelementptr inbounds nuw %struct.range_set, ptr %43, i32 0, i32 0
  %45 = load i32, ptr %44, align 8, !tbaa !15
  %46 = add i32 %45, 16
  %47 = mul i32 %46, 3
  %48 = udiv i32 %47, 2
  %49 = load ptr, ptr %3, align 8, !tbaa !4
  %50 = getelementptr inbounds nuw %struct.range_set, ptr %49, i32 0, i32 0
  store i32 %48, ptr %50, align 8, !tbaa !15
  br label %51

51:                                               ; preds = %42, %32
  %52 = load ptr, ptr %3, align 8, !tbaa !4
  %53 = getelementptr inbounds nuw %struct.range_set, ptr %52, i32 0, i32 2
  %54 = load ptr, ptr %53, align 8, !tbaa !16
  %55 = load ptr, ptr %3, align 8, !tbaa !4
  %56 = getelementptr inbounds nuw %struct.range_set, ptr %55, i32 0, i32 0
  %57 = load i32, ptr %56, align 8, !tbaa !15
  %58 = zext i32 %57 to i64
  %59 = call i64 @st_mult(i64 noundef 16, i64 noundef %58)
  %60 = call ptr @xrealloc(ptr noundef %54, i64 noundef %59)
  %61 = load ptr, ptr %3, align 8, !tbaa !4
  %62 = getelementptr inbounds nuw %struct.range_set, ptr %61, i32 0, i32 2
  store ptr %60, ptr %62, align 8, !tbaa !16
  br label %63

63:                                               ; preds = %51, %5
  br label %64

64:                                               ; preds = %63
  ret void
}

; Function Attrs: nounwind uwtable
define internal void @range_set_union(ptr noundef %0, ptr noundef %1, ptr noundef %2) #0 {
  %4 = alloca ptr, align 8
  %5 = alloca ptr, align 8
  %6 = alloca ptr, align 8
  %7 = alloca i32, align 4
  %8 = alloca i32, align 4
  %9 = alloca ptr, align 8
  %10 = alloca ptr, align 8
  %11 = alloca ptr, align 8
  store ptr %0, ptr %4, align 8, !tbaa !4
  store ptr %1, ptr %5, align 8, !tbaa !4
  store ptr %2, ptr %6, align 8, !tbaa !4
  call void @llvm.lifetime.start.p0(i64 4, ptr %7) #9
  store i32 0, ptr %7, align 4, !tbaa !20
  call void @llvm.lifetime.start.p0(i64 4, ptr %8) #9
  store i32 0, ptr %8, align 4, !tbaa !20
  call void @llvm.lifetime.start.p0(i64 8, ptr %9) #9
  %12 = load ptr, ptr %5, align 8, !tbaa !4
  %13 = getelementptr inbounds nuw %struct.range_set, ptr %12, i32 0, i32 2
  %14 = load ptr, ptr %13, align 8, !tbaa !16
  store ptr %14, ptr %9, align 8, !tbaa !24
  call void @llvm.lifetime.start.p0(i64 8, ptr %10) #9
  %15 = load ptr, ptr %6, align 8, !tbaa !4
  %16 = getelementptr inbounds nuw %struct.range_set, ptr %15, i32 0, i32 2
  %17 = load ptr, ptr %16, align 8, !tbaa !16
  store ptr %17, ptr %10, align 8, !tbaa !24
  br label %18

18:                                               ; preds = %224, %3
  %19 = load i32, ptr %7, align 4, !tbaa !20
  %20 = load ptr, ptr %5, align 8, !tbaa !4
  %21 = getelementptr inbounds nuw %struct.range_set, ptr %20, i32 0, i32 1
  %22 = load i32, ptr %21, align 4, !tbaa !11
  %23 = icmp ult i32 %19, %22
  br i1 %23, label %30, label %24

24:                                               ; preds = %18
  %25 = load i32, ptr %8, align 4, !tbaa !20
  %26 = load ptr, ptr %6, align 8, !tbaa !4
  %27 = getelementptr inbounds nuw %struct.range_set, ptr %26, i32 0, i32 1
  %28 = load i32, ptr %27, align 4, !tbaa !11
  %29 = icmp ult i32 %25, %28
  br label %30

30:                                               ; preds = %24, %18
  %31 = phi i1 [ true, %18 ], [ %29, %24 ]
  br i1 %31, label %32, label %225

32:                                               ; preds = %30
  call void @llvm.lifetime.start.p0(i64 8, ptr %11) #9
  %33 = load i32, ptr %7, align 4, !tbaa !20
  %34 = load ptr, ptr %5, align 8, !tbaa !4
  %35 = getelementptr inbounds nuw %struct.range_set, ptr %34, i32 0, i32 1
  %36 = load i32, ptr %35, align 4, !tbaa !11
  %37 = icmp ult i32 %33, %36
  br i1 %37, label %38, label %113

38:                                               ; preds = %32
  %39 = load i32, ptr %8, align 4, !tbaa !20
  %40 = load ptr, ptr %6, align 8, !tbaa !4
  %41 = getelementptr inbounds nuw %struct.range_set, ptr %40, i32 0, i32 1
  %42 = load i32, ptr %41, align 4, !tbaa !11
  %43 = icmp ult i32 %39, %42
  br i1 %43, label %44, label %113

44:                                               ; preds = %38
  %45 = load ptr, ptr %9, align 8, !tbaa !24
  %46 = load i32, ptr %7, align 4, !tbaa !20
  %47 = zext i32 %46 to i64
  %48 = getelementptr inbounds nuw %struct.range, ptr %45, i64 %47
  %49 = getelementptr inbounds nuw %struct.range, ptr %48, i32 0, i32 0
  %50 = load i64, ptr %49, align 8, !tbaa !17
  %51 = load ptr, ptr %10, align 8, !tbaa !24
  %52 = load i32, ptr %8, align 4, !tbaa !20
  %53 = zext i32 %52 to i64
  %54 = getelementptr inbounds nuw %struct.range, ptr %51, i64 %53
  %55 = getelementptr inbounds nuw %struct.range, ptr %54, i32 0, i32 0
  %56 = load i64, ptr %55, align 8, !tbaa !17
  %57 = icmp slt i64 %50, %56
  br i1 %57, label %58, label %64

58:                                               ; preds = %44
  %59 = load ptr, ptr %9, align 8, !tbaa !24
  %60 = load i32, ptr %7, align 4, !tbaa !20
  %61 = add i32 %60, 1
  store i32 %61, ptr %7, align 4, !tbaa !20
  %62 = zext i32 %60 to i64
  %63 = getelementptr inbounds nuw %struct.range, ptr %59, i64 %62
  store ptr %63, ptr %11, align 8, !tbaa !24
  br label %112

64:                                               ; preds = %44
  %65 = load ptr, ptr %9, align 8, !tbaa !24
  %66 = load i32, ptr %7, align 4, !tbaa !20
  %67 = zext i32 %66 to i64
  %68 = getelementptr inbounds nuw %struct.range, ptr %65, i64 %67
  %69 = getelementptr inbounds nuw %struct.range, ptr %68, i32 0, i32 0
  %70 = load i64, ptr %69, align 8, !tbaa !17
  %71 = load ptr, ptr %10, align 8, !tbaa !24
  %72 = load i32, ptr %8, align 4, !tbaa !20
  %73 = zext i32 %72 to i64
  %74 = getelementptr inbounds nuw %struct.range, ptr %71, i64 %73
  %75 = getelementptr inbounds nuw %struct.range, ptr %74, i32 0, i32 0
  %76 = load i64, ptr %75, align 8, !tbaa !17
  %77 = icmp sgt i64 %70, %76
  br i1 %77, label %78, label %84

78:                                               ; preds = %64
  %79 = load ptr, ptr %10, align 8, !tbaa !24
  %80 = load i32, ptr %8, align 4, !tbaa !20
  %81 = add i32 %80, 1
  store i32 %81, ptr %8, align 4, !tbaa !20
  %82 = zext i32 %80 to i64
  %83 = getelementptr inbounds nuw %struct.range, ptr %79, i64 %82
  store ptr %83, ptr %11, align 8, !tbaa !24
  br label %111

84:                                               ; preds = %64
  %85 = load ptr, ptr %9, align 8, !tbaa !24
  %86 = load i32, ptr %7, align 4, !tbaa !20
  %87 = zext i32 %86 to i64
  %88 = getelementptr inbounds nuw %struct.range, ptr %85, i64 %87
  %89 = getelementptr inbounds nuw %struct.range, ptr %88, i32 0, i32 1
  %90 = load i64, ptr %89, align 8, !tbaa !19
  %91 = load ptr, ptr %10, align 8, !tbaa !24
  %92 = load i32, ptr %8, align 4, !tbaa !20
  %93 = zext i32 %92 to i64
  %94 = getelementptr inbounds nuw %struct.range, ptr %91, i64 %93
  %95 = getelementptr inbounds nuw %struct.range, ptr %94, i32 0, i32 1
  %96 = load i64, ptr %95, align 8, !tbaa !19
  %97 = icmp slt i64 %90, %96
  br i1 %97, label %98, label %104

98:                                               ; preds = %84
  %99 = load ptr, ptr %9, align 8, !tbaa !24
  %100 = load i32, ptr %7, align 4, !tbaa !20
  %101 = add i32 %100, 1
  store i32 %101, ptr %7, align 4, !tbaa !20
  %102 = zext i32 %100 to i64
  %103 = getelementptr inbounds nuw %struct.range, ptr %99, i64 %102
  store ptr %103, ptr %11, align 8, !tbaa !24
  br label %110

104:                                              ; preds = %84
  %105 = load ptr, ptr %10, align 8, !tbaa !24
  %106 = load i32, ptr %8, align 4, !tbaa !20
  %107 = add i32 %106, 1
  store i32 %107, ptr %8, align 4, !tbaa !20
  %108 = zext i32 %106 to i64
  %109 = getelementptr inbounds nuw %struct.range, ptr %105, i64 %108
  store ptr %109, ptr %11, align 8, !tbaa !24
  br label %110

110:                                              ; preds = %104, %98
  br label %111

111:                                              ; preds = %110, %78
  br label %112

112:                                              ; preds = %111, %58
  br label %132

113:                                              ; preds = %38, %32
  %114 = load i32, ptr %7, align 4, !tbaa !20
  %115 = load ptr, ptr %5, align 8, !tbaa !4
  %116 = getelementptr inbounds nuw %struct.range_set, ptr %115, i32 0, i32 1
  %117 = load i32, ptr %116, align 4, !tbaa !11
  %118 = icmp ult i32 %114, %117
  br i1 %118, label %119, label %125

119:                                              ; preds = %113
  %120 = load ptr, ptr %9, align 8, !tbaa !24
  %121 = load i32, ptr %7, align 4, !tbaa !20
  %122 = add i32 %121, 1
  store i32 %122, ptr %7, align 4, !tbaa !20
  %123 = zext i32 %121 to i64
  %124 = getelementptr inbounds nuw %struct.range, ptr %120, i64 %123
  store ptr %124, ptr %11, align 8, !tbaa !24
  br label %131

125:                                              ; preds = %113
  %126 = load ptr, ptr %10, align 8, !tbaa !24
  %127 = load i32, ptr %8, align 4, !tbaa !20
  %128 = add i32 %127, 1
  store i32 %128, ptr %8, align 4, !tbaa !20
  %129 = zext i32 %127 to i64
  %130 = getelementptr inbounds nuw %struct.range, ptr %126, i64 %129
  store ptr %130, ptr %11, align 8, !tbaa !24
  br label %131

131:                                              ; preds = %125, %119
  br label %132

132:                                              ; preds = %131, %112
  %133 = load ptr, ptr %11, align 8, !tbaa !24
  %134 = getelementptr inbounds nuw %struct.range, ptr %133, i32 0, i32 0
  %135 = load i64, ptr %134, align 8, !tbaa !17
  %136 = load ptr, ptr %11, align 8, !tbaa !24
  %137 = getelementptr inbounds nuw %struct.range, ptr %136, i32 0, i32 1
  %138 = load i64, ptr %137, align 8, !tbaa !19
  %139 = icmp eq i64 %135, %138
  br i1 %139, label %140, label %141

140:                                              ; preds = %132
  br label %224

141:                                              ; preds = %132
  %142 = load ptr, ptr %4, align 8, !tbaa !4
  %143 = getelementptr inbounds nuw %struct.range_set, ptr %142, i32 0, i32 1
  %144 = load i32, ptr %143, align 4, !tbaa !11
  %145 = icmp ne i32 %144, 0
  br i1 %145, label %146, label %162

146:                                              ; preds = %141
  %147 = load ptr, ptr %4, align 8, !tbaa !4
  %148 = getelementptr inbounds nuw %struct.range_set, ptr %147, i32 0, i32 2
  %149 = load ptr, ptr %148, align 8, !tbaa !16
  %150 = load ptr, ptr %4, align 8, !tbaa !4
  %151 = getelementptr inbounds nuw %struct.range_set, ptr %150, i32 0, i32 1
  %152 = load i32, ptr %151, align 4, !tbaa !11
  %153 = sub i32 %152, 1
  %154 = zext i32 %153 to i64
  %155 = getelementptr inbounds nuw %struct.range, ptr %149, i64 %154
  %156 = getelementptr inbounds nuw %struct.range, ptr %155, i32 0, i32 1
  %157 = load i64, ptr %156, align 8, !tbaa !19
  %158 = load ptr, ptr %11, align 8, !tbaa !24
  %159 = getelementptr inbounds nuw %struct.range, ptr %158, i32 0, i32 0
  %160 = load i64, ptr %159, align 8, !tbaa !17
  %161 = icmp slt i64 %157, %160
  br i1 %161, label %162, label %192

162:                                              ; preds = %146, %141
  %163 = load ptr, ptr %4, align 8, !tbaa !4
  call void @range_set_grow(ptr noundef %163, i64 noundef 1)
  %164 = load ptr, ptr %11, align 8, !tbaa !24
  %165 = getelementptr inbounds nuw %struct.range, ptr %164, i32 0, i32 0
  %166 = load i64, ptr %165, align 8, !tbaa !17
  %167 = load ptr, ptr %4, align 8, !tbaa !4
  %168 = getelementptr inbounds nuw %struct.range_set, ptr %167, i32 0, i32 2
  %169 = load ptr, ptr %168, align 8, !tbaa !16
  %170 = load ptr, ptr %4, align 8, !tbaa !4
  %171 = getelementptr inbounds nuw %struct.range_set, ptr %170, i32 0, i32 1
  %172 = load i32, ptr %171, align 4, !tbaa !11
  %173 = zext i32 %172 to i64
  %174 = getelementptr inbounds nuw %struct.range, ptr %169, i64 %173
  %175 = getelementptr inbounds nuw %struct.range, ptr %174, i32 0, i32 0
  store i64 %166, ptr %175, align 8, !tbaa !17
  %176 = load ptr, ptr %11, align 8, !tbaa !24
  %177 = getelementptr inbounds nuw %struct.range, ptr %176, i32 0, i32 1
  %178 = load i64, ptr %177, align 8, !tbaa !19
  %179 = load ptr, ptr %4, align 8, !tbaa !4
  %180 = getelementptr inbounds nuw %struct.range_set, ptr %179, i32 0, i32 2
  %181 = load ptr, ptr %180, align 8, !tbaa !16
  %182 = load ptr, ptr %4, align 8, !tbaa !4
  %183 = getelementptr inbounds nuw %struct.range_set, ptr %182, i32 0, i32 1
  %184 = load i32, ptr %183, align 4, !tbaa !11
  %185 = zext i32 %184 to i64
  %186 = getelementptr inbounds nuw %struct.range, ptr %181, i64 %185
  %187 = getelementptr inbounds nuw %struct.range, ptr %186, i32 0, i32 1
  store i64 %178, ptr %187, align 8, !tbaa !19
  %188 = load ptr, ptr %4, align 8, !tbaa !4
  %189 = getelementptr inbounds nuw %struct.range_set, ptr %188, i32 0, i32 1
  %190 = load i32, ptr %189, align 4, !tbaa !11
  %191 = add i32 %190, 1
  store i32 %191, ptr %189, align 4, !tbaa !11
  br label %223

192:                                              ; preds = %146
  %193 = load ptr, ptr %4, align 8, !tbaa !4
  %194 = getelementptr inbounds nuw %struct.range_set, ptr %193, i32 0, i32 2
  %195 = load ptr, ptr %194, align 8, !tbaa !16
  %196 = load ptr, ptr %4, align 8, !tbaa !4
  %197 = getelementptr inbounds nuw %struct.range_set, ptr %196, i32 0, i32 1
  %198 = load i32, ptr %197, align 4, !tbaa !11
  %199 = sub i32 %198, 1
  %200 = zext i32 %199 to i64
  %201 = getelementptr inbounds nuw %struct.range, ptr %195, i64 %200
  %202 = getelementptr inbounds nuw %struct.range, ptr %201, i32 0, i32 1
  %203 = load i64, ptr %202, align 8, !tbaa !19
  %204 = load ptr, ptr %11, align 8, !tbaa !24
  %205 = getelementptr inbounds nuw %struct.range, ptr %204, i32 0, i32 1
  %206 = load i64, ptr %205, align 8, !tbaa !19
  %207 = icmp slt i64 %203, %206
  br i1 %207, label %208, label %222

208:                                              ; preds = %192
  %209 = load ptr, ptr %11, align 8, !tbaa !24
  %210 = getelementptr inbounds nuw %struct.range, ptr %209, i32 0, i32 1
  %211 = load i64, ptr %210, align 8, !tbaa !19
  %212 = load ptr, ptr %4, align 8, !tbaa !4
  %213 = getelementptr inbounds nuw %struct.range_set, ptr %212, i32 0, i32 2
  %214 = load ptr, ptr %213, align 8, !tbaa !16
  %215 = load ptr, ptr %4, align 8, !tbaa !4
  %216 = getelementptr inbounds nuw %struct.range_set, ptr %215, i32 0, i32 1
  %217 = load i32, ptr %216, align 4, !tbaa !11
  %218 = sub i32 %217, 1
  %219 = zext i32 %218 to i64
  %220 = getelementptr inbounds nuw %struct.range, ptr %214, i64 %219
  %221 = getelementptr inbounds nuw %struct.range, ptr %220, i32 0, i32 1
  store i64 %211, ptr %221, align 8, !tbaa !19
  br label %222

222:                                              ; preds = %208, %192
  br label %223

223:                                              ; preds = %222, %162
  br label %224

224:                                              ; preds = %223, %140
  call void @llvm.lifetime.end.p0(i64 8, ptr %11) #9
  br label %18, !llvm.loop !186

225:                                              ; preds = %30
  call void @llvm.lifetime.end.p0(i64 8, ptr %10) #9
  call void @llvm.lifetime.end.p0(i64 8, ptr %9) #9
  call void @llvm.lifetime.end.p0(i64 4, ptr %8) #9
  call void @llvm.lifetime.end.p0(i64 4, ptr %7) #9
  ret void
}