; Function Attrs: nounwind uwtable
define internal fastcc void @range_set_union(ptr noundef captures(none) %0, ptr noundef readonly captures(none) %1, ptr noundef readonly captures(none) %2) unnamed_addr #0 {
  %4 = getelementptr inbounds nuw i8, ptr %1, i64 8
  %5 = load ptr, ptr %4, align 8, !tbaa !11
  %6 = getelementptr inbounds nuw i8, ptr %2, i64 8
  %7 = load ptr, ptr %6, align 8, !tbaa !11
  %8 = getelementptr inbounds nuw i8, ptr %2, i64 4
  %9 = getelementptr inbounds nuw i8, ptr %1, i64 4
  %10 = getelementptr inbounds nuw i8, ptr %0, i64 4
  %11 = getelementptr inbounds nuw i8, ptr %0, i64 8
  br label %12

12:                                               ; preds = %.backedge, %3
  %.056 = phi i32 [ 0, %3 ], [ %.157, %.backedge ]
  %.055 = phi i32 [ 0, %3 ], [ %.1, %.backedge ]
  %13 = load i32, ptr %9, align 4, !tbaa !12
  %14 = icmp ult i32 %.055, %13
  %15 = load i32, ptr %8, align 4, !tbaa !12
  %16 = icmp ult i32 %.056, %15
  br i1 %14, label %18, label %17

17:                                               ; preds = %12
  br i1 %16, label %.critedge, label %85

18:                                               ; preds = %12
  br i1 %16, label %19, label %43

19:                                               ; preds = %18
  %20 = zext i32 %.055 to i64
  %21 = getelementptr inbounds nuw %struct.range, ptr %5, i64 %20
  %22 = load i64, ptr %21, align 8, !tbaa !13
  %23 = zext i32 %.056 to i64
  %24 = getelementptr inbounds nuw %struct.range, ptr %7, i64 %23
  %25 = load i64, ptr %24, align 8, !tbaa !13
  %26 = icmp slt i64 %22, %25
  br i1 %26, label %27, label %29

27:                                               ; preds = %19
  %28 = add nuw i32 %.055, 1
  br label %50

29:                                               ; preds = %19
  %30 = icmp sgt i64 %22, %25
  br i1 %30, label %31, label %33

31:                                               ; preds = %29
  %32 = add nuw i32 %.056, 1
  br label %50

33:                                               ; preds = %29
  %34 = getelementptr inbounds nuw i8, ptr %21, i64 8
  %35 = load i64, ptr %34, align 8, !tbaa !16
  %36 = getelementptr inbounds nuw i8, ptr %24, i64 8
  %37 = load i64, ptr %36, align 8, !tbaa !16
  %38 = icmp slt i64 %35, %37
  br i1 %38, label %39, label %41

39:                                               ; preds = %33
  %40 = add nuw i32 %.055, 1
  br label %50

41:                                               ; preds = %33
  %42 = add nuw i32 %.056, 1
  br label %50

43:                                               ; preds = %18
  %44 = add nuw i32 %.055, 1
  %45 = zext i32 %.055 to i64
  %46 = getelementptr inbounds nuw %struct.range, ptr %5, i64 %45
  br label %50

.critedge:                                        ; preds = %17
  %47 = add nuw i32 %.056, 1
  %48 = zext i32 %.056 to i64
  %49 = getelementptr inbounds nuw %struct.range, ptr %7, i64 %48
  br label %50

50:                                               ; preds = %43, %.critedge, %27, %39, %41, %31
  %.157 = phi i32 [ %.056, %27 ], [ %32, %31 ], [ %.056, %39 ], [ %42, %41 ], [ %.056, %43 ], [ %47, %.critedge ]
  %.1 = phi i32 [ %28, %27 ], [ %.055, %31 ], [ %40, %39 ], [ %.055, %41 ], [ %44, %43 ], [ %.055, %.critedge ]
  %.0 = phi ptr [ %21, %27 ], [ %24, %31 ], [ %21, %39 ], [ %24, %41 ], [ %46, %43 ], [ %49, %.critedge ]
  %51 = load i64, ptr %.0, align 8, !tbaa !13
  %52 = getelementptr inbounds nuw i8, ptr %.0, i64 8
  %53 = load i64, ptr %52, align 8, !tbaa !16
  %54 = icmp eq i64 %51, %53
  br i1 %54, label %.backedge, label %55

55:                                               ; preds = %50
  %56 = load i32, ptr %10, align 4, !tbaa !12
  %.not = icmp eq i32 %56, 0
  %.pre66.pre = load ptr, ptr %11, align 8, !tbaa !11
  br i1 %.not, label %63, label %57

57:                                               ; preds = %55
  %58 = add i32 %56, -1
  %59 = zext i32 %58 to i64
  %60 = getelementptr inbounds nuw %struct.range, ptr %.pre66.pre, i64 %59, i32 1
  %61 = load i64, ptr %60, align 8, !tbaa !16
  %62 = icmp slt i64 %61, %51
  br i1 %62, label %63, label %82

63:                                               ; preds = %57, %55
  %64 = load i32, ptr %0, align 8, !tbaa !4
  %.not65 = icmp ult i32 %56, %64
  br i1 %.not65, label %range_set_grow.exit, label %st_mult.exit.i

st_mult.exit.i:                                   ; preds = %63
  %65 = zext i32 %56 to i64
  %66 = add nuw nsw i64 %65, 1
  %67 = mul i32 %64, 3
  %68 = add i32 %67, 48
  %69 = lshr i32 %68, 1
  %70 = zext nneg i32 %69 to i64
  %storemerge14.i = tail call i64 @llvm.umax.i64(i64 %66, i64 %70)
  %storemerge.i = trunc i64 %storemerge14.i to i32
  store i32 %storemerge.i, ptr %0, align 8, !tbaa !4
  %71 = shl nuw nsw i64 %storemerge14.i, 4
  %72 = and i64 %71, 68719476720
  %73 = tail call ptr @xrealloc(ptr noundef %.pre66.pre, i64 noundef %72) #16
  store ptr %73, ptr %11, align 8, !tbaa !11
  %.pre = load i64, ptr %.0, align 8, !tbaa !13
  %.pre67 = load i32, ptr %10, align 4, !tbaa !12
  %.pre68 = load i64, ptr %52, align 8, !tbaa !16
  br label %range_set_grow.exit

range_set_grow.exit:                              ; preds = %63, %st_mult.exit.i
  %74 = phi i64 [ %53, %63 ], [ %.pre68, %st_mult.exit.i ]
  %75 = phi i32 [ %56, %63 ], [ %.pre67, %st_mult.exit.i ]
  %76 = phi ptr [ %.pre66.pre, %63 ], [ %73, %st_mult.exit.i ]
  %77 = phi i64 [ %51, %63 ], [ %.pre, %st_mult.exit.i ]
  %78 = zext i32 %75 to i64
  %79 = getelementptr inbounds nuw %struct.range, ptr %76, i64 %78
  store i64 %77, ptr %79, align 8, !tbaa !13
  %80 = getelementptr inbounds nuw %struct.range, ptr %76, i64 %78, i32 1
  store i64 %74, ptr %80, align 8, !tbaa !16
  %81 = add i32 %75, 1
  store i32 %81, ptr %10, align 4, !tbaa !12
  br label %.backedge

.backedge:                                        ; preds = %range_set_grow.exit, %84, %82, %50
  br label %12, !llvm.loop !172

82:                                               ; preds = %57
  %83 = icmp slt i64 %61, %53
  br i1 %83, label %84, label %.backedge

84:                                               ; preds = %82
  store i64 %53, ptr %60, align 8, !tbaa !16
  br label %.backedge

85:                                               ; preds = %17
  ret void
}